target datalayout = "e-m:e-p270:32:32-p271:32:32-p272:64:64-i64:64-i128:128-f80:128-n8:16:32:64-S128"
target triple = "x86_64-pc-linux-gnu"

@.str.281 = private unnamed_addr constant [84 x i8] c"asn1_expect_list_member: Failed to find valid OID alternative for list member algo\0A\00", align 1

; Function Attrs: nounwind uwtable
define internal i32 @asn1_expect_list_member(ptr noundef %0, ptr noundef %1, ptr noundef %2) #0 {
  %4 = alloca i32, align 4
  %5 = alloca ptr, align 8
  %6 = alloca ptr, align 8
  %7 = alloca ptr, align 8
  %8 = alloca ptr, align 8
  %9 = alloca i32, align 4
  store ptr %0, ptr %5, align 8, !tbaa !3
  store ptr %1, ptr %6, align 8, !tbaa !62
  store ptr %2, ptr %7, align 8, !tbaa !63
  call void @llvm.lifetime.start.p0(i64 8, ptr %8) #8
  %10 = load ptr, ptr %5, align 8, !tbaa !3
  %11 = load ptr, ptr %6, align 8, !tbaa !62
  %12 = load ptr, ptr %7, align 8, !tbaa !63
  %13 = call ptr @asn1_expect_algo_multi(ptr noundef %10, ptr noundef %11, ptr noundef %12, ptr noundef @asn1_expect_list_member.alts, i32 noundef 2)
  store ptr %13, ptr %8, align 8, !tbaa !85
  %14 = load ptr, ptr %8, align 8, !tbaa !85
  %15 = icmp eq ptr null, %14
  br i1 %15, label %16, label %17

16:                                               ; preds = %3
  call void (ptr, ...) @cli_dbgmsg(ptr noundef @.str.281)
  store i32 1, ptr %4, align 4
  store i32 1, ptr %9, align 4
  br label %18

17:                                               ; preds = %3
  store i32 0, ptr %4, align 4
  store i32 1, ptr %9, align 4
  br label %18

18:                                               ; preds = %17, %16
  call void @llvm.lifetime.end.p0(i64 8, ptr %8) #8
  %19 = load i32, ptr %4, align 4
  ret i32 %19
}