; Function Attrs: nounwind uwtable
define internal fastcc range(i32 0, 2) i32 @asn1_expect_list_member(ptr noundef %0, ptr noundef nonnull captures(none) %1, ptr noundef nonnull captures(none) %2) unnamed_addr #0 {
  %4 = tail call fastcc ptr @asn1_expect_algo_multi(ptr noundef %0, ptr noundef %1, ptr noundef %2, ptr noundef nonnull @asn1_expect_list_member.alts, i32 noundef 2)
  %5 = icmp eq ptr %4, null
  br i1 %5, label %6, label %7

6:                                                ; preds = %3
  tail call void (ptr, ...) @cli_dbgmsg(ptr noundef nonnull @.str.281) #11
  br label %7

7:                                                ; preds = %3, %6
  %.0 = phi i32 [ 1, %6 ], [ 0, %3 ]
  ret i32 %.0
}